target datalayout = "e-m:e-p270:32:32-p271:32:32-p272:64:64-i64:64-i128:128-f80:128-n8:16:32:64-S128"
target triple = "x86_64-pc-linux-gnu"

%class.Sample_Debug = type <{ %class.Sample, ptr, ptr, ptr, [3 x float], [3 x float], [3 x float], [3 x float], i32, [4 x i8] }>
%class.Sample = type { ptr, ptr, ptr, ptr, ptr, i8, float, float, float, float, float, float, float, float, float, float, float, float, float, i32, i8, i8, i8, ptr, [9 x ptr], ptr, %class.SampleDebugDraw }
%class.SampleDebugDraw = type { %class.DebugDrawGL }
%class.DebugDrawGL = type { %struct.duDebugDraw }
%struct.duDebugDraw = type { ptr }

; Function Attrs: mustprogress nounwind uwtable
define dso_local void @_ZN12Sample_DebugD2Ev(ptr noundef nonnull align 8 dereferenceable(276) %0) unnamed_addr #3 align 2 personality ptr @__gxx_personality_v0 {
  %2 = alloca ptr, align 8
  store ptr %0, ptr %2, align 8
  %3 = load ptr, ptr %2, align 8
  store ptr getelementptr inbounds ({ [25 x ptr] }, ptr @_ZTV12Sample_Debug, i32 0, i32 0, i32 2), ptr %3, align 8
  %4 = getelementptr inbounds %class.Sample_Debug, ptr %3, i32 0, i32 1
  %5 = load ptr, ptr %4, align 8
  invoke void @_Z24rcFreeCompactHeightfieldP20rcCompactHeightfield(ptr noundef %5)
          to label %6 unwind label %13

6:                                                ; preds = %1
  %7 = getelementptr inbounds %class.Sample_Debug, ptr %3, i32 0, i32 2
  %8 = load ptr, ptr %7, align 8
  invoke void @_Z16rcFreeContourSetP12rcContourSet(ptr noundef %8)
          to label %9 unwind label %13

9:                                                ; preds = %6
  %10 = getelementptr inbounds %class.Sample_Debug, ptr %3, i32 0, i32 3
  %11 = load ptr, ptr %10, align 8
  invoke void @_Z14rcFreePolyMeshP10rcPolyMesh(ptr noundef %11)
          to label %12 unwind label %13

12:                                               ; preds = %9
  call void @_ZN6SampleD2Ev(ptr noundef nonnull align 8 dereferenceable(200) %3) #6
  ret void

13:                                               ; preds = %9, %6, %1
  %14 = landingpad { ptr, i32 }
          catch ptr null
  %15 = extractvalue { ptr, i32 } %14, 0
  call void @__clang_call_terminate(ptr %15) #7
  unreachable
}